target datalayout = "e-m:e-p270:32:32-p271:32:32-p272:64:64-i64:64-i128:128-f80:128-n8:16:32:64-S128"
target triple = "x86_64-pc-linux-gnu"

%struct.namelist_t = type { ptr, i32, i32 }
%struct.namelist_entry_t = type { ptr, ptr, i32 }
%struct.JSValue = type { %union.JSValueUnion, i64 }
%union.JSValueUnion = type { double }
%struct.JSRefCountHeader = type { i32 }

@cmodule_list = internal global %struct.namelist_t zeroinitializer, align 8
@init_module_list = internal global %struct.namelist_t zeroinitializer, align 8
@.str = private unnamed_addr constant [4 x i8] c".so\00", align 1
@stderr = external global ptr, align 8
@.str.1 = private unnamed_addr constant [56 x i8] c"Warning: binary module '%s' will be dynamically loaded\0A\00", align 1
@dynamic_export = internal global i32 0, align 4
@.str.2 = private unnamed_addr constant [36 x i8] c"could not load module filename '%s'\00", align 1
@cname_list = internal global %struct.namelist_t zeroinitializer, align 8
@outfile = internal global ptr null, align 8
@.str.30 = private unnamed_addr constant [6 x i8] c"%s_%d\00", align 1

; Function Attrs: nounwind uwtable
define internal void @JS_FreeValue(ptr noundef %0, i64 %1, i64 %2) #0 {
  %4 = alloca %struct.JSValue, align 8
  %5 = alloca ptr, align 8
  %6 = alloca ptr, align 8
  %7 = getelementptr inbounds { i64, i64 }, ptr %4, i32 0, i32 0
  store i64 %1, ptr %7, align 8
  %8 = getelementptr inbounds { i64, i64 }, ptr %4, i32 0, i32 1
  store i64 %2, ptr %8, align 8
  store ptr %0, ptr %5, align 8
  %9 = getelementptr inbounds %struct.JSValue, ptr %4, i32 0, i32 1
  %10 = load i64, ptr %9, align 8
  %11 = trunc i64 %10 to i32
  %12 = icmp uge i32 %11, -11
  br i1 %12, label %13, label %28

13:                                               ; preds = %3
  %14 = getelementptr inbounds %struct.JSValue, ptr %4, i32 0, i32 0
  %15 = load ptr, ptr %14, align 8
  store ptr %15, ptr %6, align 8
  %16 = load ptr, ptr %6, align 8
  %17 = getelementptr inbounds %struct.JSRefCountHeader, ptr %16, i32 0, i32 0
  %18 = load i32, ptr %17, align 4
  %19 = add i32 %18, -1
  store i32 %19, ptr %17, align 4
  %20 = icmp sle i32 %19, 0
  br i1 %20, label %21, label %27

21:                                               ; preds = %13
  %22 = load ptr, ptr %5, align 8
  %23 = getelementptr inbounds { i64, i64 }, ptr %4, i32 0, i32 0
  %24 = load i64, ptr %23, align 8
  %25 = getelementptr inbounds { i64, i64 }, ptr %4, i32 0, i32 1
  %26 = load i64, ptr %25, align 8
  call void @__JS_FreeValue(ptr noundef %22, i64 %24, i64 %26)
  br label %27

27:                                               ; preds = %21, %13
  br label %28

28:                                               ; preds = %27, %3
  ret void
}

; Function Attrs: nounwind uwtable
define internal void @find_unique_cname(ptr noundef %0, i64 noundef %1) #0 {
  %3 = alloca ptr, align 8
  %4 = alloca i64, align 8
  %5 = alloca [1024 x i8], align 16
  %6 = alloca i32, align 4
  %7 = alloca i64, align 8
  %8 = alloca i64, align 8
  store ptr %0, ptr %3, align 8
  store i64 %1, ptr %4, align 8
  %9 = load ptr, ptr %3, align 8
  %10 = call i64 @strlen(ptr noundef %9) #10
  store i64 %10, ptr %7, align 8
  %11 = load i64, ptr %4, align 8
  %12 = sub i64 %11, 16
  store i64 %12, ptr %8, align 8
  %13 = load i64, ptr %7, align 8
  %14 = load i64, ptr %8, align 8
  %15 = icmp ugt i64 %13, %14
  br i1 %15, label %16, label %20

16:                                               ; preds = %2
  %17 = load ptr, ptr %3, align 8
  %18 = load i64, ptr %8, align 8
  %19 = getelementptr i8, ptr %17, i64 %18
  store i8 0, ptr %19, align 1
  br label %20

20:                                               ; preds = %16, %2
  store i32 1, ptr %6, align 4
  br label %21

21:                                               ; preds = %30, %20
  %22 = getelementptr inbounds [1024 x i8], ptr %5, i64 0, i64 0
  %23 = load ptr, ptr %3, align 8
  %24 = load i32, ptr %6, align 4
  %25 = call i32 (ptr, i64, ptr, ...) @snprintf(ptr noundef %22, i64 noundef 1024, ptr noundef @.str.30, ptr noundef %23, i32 noundef %24) #9
  %26 = getelementptr inbounds [1024 x i8], ptr %5, i64 0, i64 0
  %27 = call ptr @namelist_find(ptr noundef @cname_list, ptr noundef %26)
  %28 = icmp ne ptr %27, null
  br i1 %28, label %30, label %29

29:                                               ; preds = %21
  br label %33

30:                                               ; preds = %21
  %31 = load i32, ptr %6, align 4
  %32 = add i32 %31, 1
  store i32 %32, ptr %6, align 4
  br label %21

33:                                               ; preds = %29
  %34 = load ptr, ptr %3, align 8
  %35 = load i64, ptr %4, align 8
  %36 = trunc i64 %35 to i32
  %37 = getelementptr inbounds [1024 x i8], ptr %5, i64 0, i64 0
  call void @pstrcpy(ptr noundef %34, i32 noundef %36, ptr noundef %37)
  ret void
}

; Function Attrs: nounwind uwtable
define internal i32 @JS_IsException(i64 %0, i64 %1) #0 {
  %3 = alloca %struct.JSValue, align 8
  %4 = getelementptr inbounds { i64, i64 }, ptr %3, i32 0, i32 0
  store i64 %0, ptr %4, align 8
  %5 = getelementptr inbounds { i64, i64 }, ptr %3, i32 0, i32 1
  store i64 %1, ptr %5, align 8
  %6 = getelementptr inbounds %struct.JSValue, ptr %3, i32 0, i32 1
  %7 = load i64, ptr %6, align 8
  %8 = trunc i64 %7 to i32
  %9 = icmp eq i32 %8, 6
  %10 = xor i1 %9, true
  %11 = xor i1 %10, true
  %12 = zext i1 %11 to i32
  %13 = sext i32 %12 to i64
  %14 = trunc i64 %13 to i32
  ret i32 %14
}

; Function Attrs: nounwind uwtable
define dso_local void @namelist_add(ptr noundef %0, ptr noundef %1, ptr noundef %2, i32 noundef %3) #0 {
  %5 = alloca ptr, align 8
  %6 = alloca ptr, align 8
  %7 = alloca ptr, align 8
  %8 = alloca i32, align 4
  %9 = alloca ptr, align 8
  %10 = alloca i64, align 8
  %11 = alloca ptr, align 8
  store ptr %0, ptr %5, align 8
  store ptr %1, ptr %6, align 8
  store ptr %2, ptr %7, align 8
  store i32 %3, ptr %8, align 4
  %12 = load ptr, ptr %5, align 8
  %13 = getelementptr inbounds %struct.namelist_t, ptr %12, i32 0, i32 1
  %14 = load i32, ptr %13, align 8
  %15 = load ptr, ptr %5, align 8
  %16 = getelementptr inbounds %struct.namelist_t, ptr %15, i32 0, i32 2
  %17 = load i32, ptr %16, align 4
  %18 = icmp eq i32 %14, %17
  br i1 %18, label %19, label %43

19:                                               ; preds = %4
  %20 = load ptr, ptr %5, align 8
  %21 = getelementptr inbounds %struct.namelist_t, ptr %20, i32 0, i32 2
  %22 = load i32, ptr %21, align 4
  %23 = load ptr, ptr %5, align 8
  %24 = getelementptr inbounds %struct.namelist_t, ptr %23, i32 0, i32 2
  %25 = load i32, ptr %24, align 4
  %26 = ashr i32 %25, 1
  %27 = add i32 %22, %26
  %28 = add i32 %27, 4
  %29 = sext i32 %28 to i64
  store i64 %29, ptr %10, align 8
  %30 = load ptr, ptr %5, align 8
  %31 = getelementptr inbounds %struct.namelist_t, ptr %30, i32 0, i32 0
  %32 = load ptr, ptr %31, align 8
  %33 = load i64, ptr %10, align 8
  %34 = mul i64 24, %33
  %35 = call ptr @realloc(ptr noundef %32, i64 noundef %34) #8
  store ptr %35, ptr %11, align 8
  %36 = load ptr, ptr %11, align 8
  %37 = load ptr, ptr %5, align 8
  %38 = getelementptr inbounds %struct.namelist_t, ptr %37, i32 0, i32 0
  store ptr %36, ptr %38, align 8
  %39 = load i64, ptr %10, align 8
  %40 = trunc i64 %39 to i32
  %41 = load ptr, ptr %5, align 8
  %42 = getelementptr inbounds %struct.namelist_t, ptr %41, i32 0, i32 2
  store i32 %40, ptr %42, align 4
  br label %43

43:                                               ; preds = %19, %4
  %44 = load ptr, ptr %5, align 8
  %45 = getelementptr inbounds %struct.namelist_t, ptr %44, i32 0, i32 0
  %46 = load ptr, ptr %45, align 8
  %47 = load ptr, ptr %5, align 8
  %48 = getelementptr inbounds %struct.namelist_t, ptr %47, i32 0, i32 1
  %49 = load i32, ptr %48, align 8
  %50 = add i32 %49, 1
  store i32 %50, ptr %48, align 8
  %51 = sext i32 %49 to i64
  %52 = getelementptr %struct.namelist_entry_t, ptr %46, i64 %51
  store ptr %52, ptr %9, align 8
  %53 = load ptr, ptr %6, align 8
  %54 = call noalias ptr @strdup(ptr noundef %53) #9
  %55 = load ptr, ptr %9, align 8
  %56 = getelementptr inbounds %struct.namelist_entry_t, ptr %55, i32 0, i32 0
  store ptr %54, ptr %56, align 8
  %57 = load ptr, ptr %7, align 8
  %58 = icmp ne ptr %57, null
  br i1 %58, label %59, label %64

59:                                               ; preds = %43
  %60 = load ptr, ptr %7, align 8
  %61 = call noalias ptr @strdup(ptr noundef %60) #9
  %62 = load ptr, ptr %9, align 8
  %63 = getelementptr inbounds %struct.namelist_entry_t, ptr %62, i32 0, i32 1
  store ptr %61, ptr %63, align 8
  br label %67

64:                                               ; preds = %43
  %65 = load ptr, ptr %9, align 8
  %66 = getelementptr inbounds %struct.namelist_entry_t, ptr %65, i32 0, i32 1
  store ptr null, ptr %66, align 8
  br label %67

67:                                               ; preds = %64, %59
  %68 = load i32, ptr %8, align 4
  %69 = load ptr, ptr %9, align 8
  %70 = getelementptr inbounds %struct.namelist_entry_t, ptr %69, i32 0, i32 2
  store i32 %68, ptr %70, align 8
  ret void
}

; Function Attrs: nounwind uwtable
define dso_local ptr @namelist_find(ptr noundef %0, ptr noundef %1) #0 {
  %3 = alloca ptr, align 8
  %4 = alloca ptr, align 8
  %5 = alloca ptr, align 8
  %6 = alloca i32, align 4
  %7 = alloca ptr, align 8
  store ptr %0, ptr %4, align 8
  store ptr %1, ptr %5, align 8
  store i32 0, ptr %6, align 4
  br label %8

8:                                                ; preds = %30, %2
  %9 = load i32, ptr %6, align 4
  %10 = load ptr, ptr %4, align 8
  %11 = getelementptr inbounds %struct.namelist_t, ptr %10, i32 0, i32 1
  %12 = load i32, ptr %11, align 8
  %13 = icmp slt i32 %9, %12
  br i1 %13, label %14, label %33

14:                                               ; preds = %8
  %15 = load ptr, ptr %4, align 8
  %16 = getelementptr inbounds %struct.namelist_t, ptr %15, i32 0, i32 0
  %17 = load ptr, ptr %16, align 8
  %18 = load i32, ptr %6, align 4
  %19 = sext i32 %18 to i64
  %20 = getelementptr %struct.namelist_entry_t, ptr %17, i64 %19
  store ptr %20, ptr %7, align 8
  %21 = load ptr, ptr %7, align 8
  %22 = getelementptr inbounds %struct.namelist_entry_t, ptr %21, i32 0, i32 0
  %23 = load ptr, ptr %22, align 8
  %24 = load ptr, ptr %5, align 8
  %25 = call i32 @strcmp(ptr noundef %23, ptr noundef %24) #10
  %26 = icmp ne i32 %25, 0
  br i1 %26, label %29, label %27

27:                                               ; preds = %14
  %28 = load ptr, ptr %7, align 8
  store ptr %28, ptr %3, align 8
  br label %34

29:                                               ; preds = %14
  br label %30

30:                                               ; preds = %29
  %31 = load i32, ptr %6, align 4
  %32 = add i32 %31, 1
  store i32 %32, ptr %6, align 4
  br label %8, !llvm.loop !9

33:                                               ; preds = %8
  store ptr null, ptr %3, align 8
  br label %34

34:                                               ; preds = %33, %27
  %35 = load ptr, ptr %3, align 8
  ret ptr %35
}

; Function Attrs: nounwind uwtable
define dso_local ptr @jsc_module_loader(ptr noundef %0, ptr noundef %1, ptr noundef %2) #0 {
  %4 = alloca ptr, align 8
  %5 = alloca ptr, align 8
  %6 = alloca ptr, align 8
  %7 = alloca ptr, align 8
  %8 = alloca ptr, align 8
  %9 = alloca ptr, align 8
  %10 = alloca i64, align 8
  %11 = alloca ptr, align 8
  %12 = alloca %struct.JSValue, align 8
  %13 = alloca [1024 x i8], align 16
  %14 = alloca %struct.JSValue, align 8
  %15 = alloca %struct.JSValue, align 8
  store ptr %0, ptr %5, align 8
  store ptr %1, ptr %6, align 8
  store ptr %2, ptr %7, align 8
  %16 = load ptr, ptr %6, align 8
  %17 = call ptr @namelist_find(ptr noundef @cmodule_list, ptr noundef %16)
  store ptr %17, ptr %9, align 8
  %18 = load ptr, ptr %9, align 8
  %19 = icmp ne ptr %18, null
  br i1 %19, label %20, label %30

20:                                               ; preds = %3
  %21 = load ptr, ptr %9, align 8
  %22 = getelementptr inbounds %struct.namelist_entry_t, ptr %21, i32 0, i32 0
  %23 = load ptr, ptr %22, align 8
  %24 = load ptr, ptr %9, align 8
  %25 = getelementptr inbounds %struct.namelist_entry_t, ptr %24, i32 0, i32 1
  %26 = load ptr, ptr %25, align 8
  call void @namelist_add(ptr noundef @init_module_list, ptr noundef %23, ptr noundef %26, i32 noundef 0)
  %27 = load ptr, ptr %5, align 8
  %28 = load ptr, ptr %6, align 8
  %29 = call ptr @JS_NewCModule(ptr noundef %27, ptr noundef %28, ptr noundef @js_module_dummy_init)
  store ptr %29, ptr %8, align 8
  br label %98

30:                                               ; preds = %3
  %31 = load ptr, ptr %6, align 8
  %32 = call i32 @has_suffix(ptr noundef %31, ptr noundef @.str)
  %33 = icmp ne i32 %32, 0
  br i1 %33, label %34, label %41

34:                                               ; preds = %30
  %35 = load ptr, ptr @stderr, align 8
  %36 = load ptr, ptr %6, align 8
  %37 = call i32 (ptr, ptr, ...) @fprintf(ptr noundef %35, ptr noundef @.str.1, ptr noundef %36) #9
  %38 = load ptr, ptr %5, align 8
  %39 = load ptr, ptr %6, align 8
  %40 = call ptr @JS_NewCModule(ptr noundef %38, ptr noundef %39, ptr noundef @js_module_dummy_init)
  store ptr %40, ptr %8, align 8
  store i32 1, ptr @dynamic_export, align 4
  br label %97

41:                                               ; preds = %30
  %42 = load ptr, ptr %5, align 8
  %43 = load ptr, ptr %6, align 8
  %44 = call ptr @js_load_file(ptr noundef %42, ptr noundef %10, ptr noundef %43)
  store ptr %44, ptr %11, align 8
  %45 = load ptr, ptr %11, align 8
  %46 = icmp ne ptr %45, null
  br i1 %46, label %55, label %47

47:                                               ; preds = %41
  %48 = load ptr, ptr %5, align 8
  %49 = load ptr, ptr %6, align 8
  %50 = call { i64, i64 } (ptr, ptr, ...) @JS_ThrowReferenceError(ptr noundef %48, ptr noundef @.str.2, ptr noundef %49)
  %51 = getelementptr inbounds { i64, i64 }, ptr %14, i32 0, i32 0
  %52 = extractvalue { i64, i64 } %50, 0
  store i64 %52, ptr %51, align 8
  %53 = getelementptr inbounds { i64, i64 }, ptr %14, i32 0, i32 1
  %54 = extractvalue { i64, i64 } %50, 1
  store i64 %54, ptr %53, align 8
  store ptr null, ptr %4, align 8
  br label %100

55:                                               ; preds = %41
  %56 = load ptr, ptr %5, align 8
  %57 = load ptr, ptr %11, align 8
  %58 = load i64, ptr %10, align 8
  %59 = load ptr, ptr %6, align 8
  %60 = call { i64, i64 } @JS_Eval(ptr noundef %56, ptr noundef %57, i64 noundef %58, ptr noundef %59, i32 noundef 33)
  %61 = getelementptr inbounds { i64, i64 }, ptr %15, i32 0, i32 0
  %62 = extractvalue { i64, i64 } %60, 0
  store i64 %62, ptr %61, align 8
  %63 = getelementptr inbounds { i64, i64 }, ptr %15, i32 0, i32 1
  %64 = extractvalue { i64, i64 } %60, 1
  store i64 %64, ptr %63, align 8
  call void @llvm.memcpy.p0.p0.i64(ptr align 8 %12, ptr align 8 %15, i64 16, i1 false)
  %65 = load ptr, ptr %5, align 8
  %66 = load ptr, ptr %11, align 8
  call void @js_free(ptr noundef %65, ptr noundef %66)
  %67 = getelementptr inbounds { i64, i64 }, ptr %12, i32 0, i32 0
  %68 = load i64, ptr %67, align 8
  %69 = getelementptr inbounds { i64, i64 }, ptr %12, i32 0, i32 1
  %70 = load i64, ptr %69, align 8
  %71 = call i32 @JS_IsException(i64 %68, i64 %70)
  %72 = icmp ne i32 %71, 0
  br i1 %72, label %73, label %74

73:                                               ; preds = %55
  store ptr null, ptr %4, align 8
  br label %100

74:                                               ; preds = %55
  %75 = getelementptr inbounds [1024 x i8], ptr %13, i64 0, i64 0
  %76 = load ptr, ptr %6, align 8
  call void @get_c_name(ptr noundef %75, i64 noundef 1024, ptr noundef %76)
  %77 = getelementptr inbounds [1024 x i8], ptr %13, i64 0, i64 0
  %78 = call ptr @namelist_find(ptr noundef @cname_list, ptr noundef %77)
  %79 = icmp ne ptr %78, null
  br i1 %79, label %80, label %82

80:                                               ; preds = %74
  %81 = getelementptr inbounds [1024 x i8], ptr %13, i64 0, i64 0
  call void @find_unique_cname(ptr noundef %81, i64 noundef 1024)
  br label %82

82:                                               ; preds = %80, %74
  %83 = load ptr, ptr %5, align 8
  %84 = load ptr, ptr @outfile, align 8
  %85 = getelementptr inbounds [1024 x i8], ptr %13, i64 0, i64 0
  %86 = getelementptr inbounds { i64, i64 }, ptr %12, i32 0, i32 0
  %87 = load i64, ptr %86, align 8
  %88 = getelementptr inbounds { i64, i64 }, ptr %12, i32 0, i32 1
  %89 = load i64, ptr %88, align 8
  call void @output_object_code(ptr noundef %83, ptr noundef %84, i64 %87, i64 %89, ptr noundef %85, i32 noundef 1)
  %90 = getelementptr inbounds %struct.JSValue, ptr %12, i32 0, i32 0
  %91 = load ptr, ptr %90, align 8
  store ptr %91, ptr %8, align 8
  %92 = load ptr, ptr %5, align 8
  %93 = getelementptr inbounds { i64, i64 }, ptr %12, i32 0, i32 0
  %94 = load i64, ptr %93, align 8
  %95 = getelementptr inbounds { i64, i64 }, ptr %12, i32 0, i32 1
  %96 = load i64, ptr %95, align 8
  call void @JS_FreeValue(ptr noundef %92, i64 %94, i64 %96)
  br label %97

97:                                               ; preds = %82, %34
  br label %98

98:                                               ; preds = %97, %20
  %99 = load ptr, ptr %8, align 8
  store ptr %99, ptr %4, align 8
  br label %100

100:                                              ; preds = %98, %73, %47
  %101 = load ptr, ptr %4, align 8
  ret ptr %101
}