; Function Attrs: nounwind uwtable
define dso_local ptr @jsc_module_loader(ptr noundef %0, ptr noundef %1, ptr nocapture readnone %2) #3 {
  %4 = alloca [1024 x i8], align 16
  %5 = alloca i64, align 8
  %6 = alloca [1024 x i8], align 16
  %7 = load i32, ptr @cmodule_list.1, align 8
  %8 = icmp sgt i32 %7, 0
  br i1 %8, label %.lr.ph.i, label %namelist_find.exit.thread

.lr.ph.i:                                         ; preds = %3
  %9 = load ptr, ptr @cmodule_list.0, align 8
  %wide.trip.count.i = zext nneg i32 %7 to i64
  br label %11

10:                                               ; preds = %11
  %indvars.iv.next.i = add nuw nsw i64 %indvars.iv.i, 1
  %exitcond.not.i = icmp eq i64 %indvars.iv.next.i, %wide.trip.count.i
  br i1 %exitcond.not.i, label %namelist_find.exit.thread, label %11, !llvm.loop !9

11:                                               ; preds = %10, %.lr.ph.i
  %indvars.iv.i = phi i64 [ 0, %.lr.ph.i ], [ %indvars.iv.next.i, %10 ]
  %12 = getelementptr %struct.namelist_entry_t, ptr %9, i64 %indvars.iv.i
  %13 = load ptr, ptr %12, align 8
  %14 = tail call i32 @strcmp(ptr noundef nonnull dereferenceable(1) %13, ptr noundef nonnull dereferenceable(1) %1) #17
  %.not.i = icmp eq i32 %14, 0
  br i1 %.not.i, label %namelist_find.exit, label %10

namelist_find.exit:                               ; preds = %11
  %15 = getelementptr inbounds i8, ptr %12, i64 8
  %16 = load ptr, ptr %15, align 8
  %17 = load i32, ptr @init_module_list.1, align 8
  %18 = load i32, ptr @init_module_list.2, align 8
  %19 = icmp eq i32 %17, %18
  %.pre.i = load ptr, ptr @init_module_list.0, align 8
  br i1 %19, label %20, label %27

20:                                               ; preds = %namelist_find.exit
  %21 = ashr i32 %17, 1
  %22 = add i32 %17, 4
  %23 = add i32 %22, %21
  %24 = sext i32 %23 to i64
  %25 = mul nsw i64 %24, 24
  %26 = tail call ptr @realloc(ptr noundef %.pre.i, i64 noundef %25) #15
  store ptr %26, ptr @init_module_list.0, align 8
  store i32 %23, ptr @init_module_list.2, align 8
  %.pre20.i = load i32, ptr @init_module_list.1, align 8
  br label %27

27:                                               ; preds = %20, %namelist_find.exit
  %28 = phi i32 [ %.pre20.i, %20 ], [ %17, %namelist_find.exit ]
  %29 = phi ptr [ %26, %20 ], [ %.pre.i, %namelist_find.exit ]
  %30 = add i32 %28, 1
  store i32 %30, ptr @init_module_list.1, align 8
  %31 = sext i32 %28 to i64
  %32 = getelementptr %struct.namelist_entry_t, ptr %29, i64 %31
  %33 = tail call noalias ptr @strdup(ptr noundef %13) #16
  store ptr %33, ptr %32, align 8
  %.not.i42 = icmp eq ptr %16, null
  br i1 %.not.i42, label %namelist_add.exit, label %34

34:                                               ; preds = %27
  %35 = tail call noalias ptr @strdup(ptr noundef nonnull %16) #16
  br label %namelist_add.exit

namelist_add.exit:                                ; preds = %27, %34
  %.sink.i = phi ptr [ %35, %34 ], [ null, %27 ]
  %36 = getelementptr inbounds i8, ptr %32, i64 8
  store ptr %.sink.i, ptr %36, align 8
  %37 = getelementptr inbounds i8, ptr %32, i64 16
  store i32 0, ptr %37, align 8
  %38 = tail call ptr @JS_NewCModule(ptr noundef %0, ptr noundef %1, ptr noundef nonnull @js_module_dummy_init) #16
  br label %JS_FreeValue.exit

namelist_find.exit.thread:                        ; preds = %10, %3
  %39 = tail call i32 @has_suffix(ptr noundef %1, ptr noundef nonnull @.str) #16
  %.not35 = icmp eq i32 %39, 0
  br i1 %.not35, label %44, label %40

40:                                               ; preds = %namelist_find.exit.thread
  %41 = load ptr, ptr @stderr, align 8
  %42 = tail call i32 (ptr, ptr, ...) @fprintf(ptr noundef %41, ptr noundef nonnull @.str.1, ptr noundef %1) #18
  %43 = tail call ptr @JS_NewCModule(ptr noundef %0, ptr noundef %1, ptr noundef nonnull @js_module_dummy_init) #16
  store i1 true, ptr @dynamic_export, align 4
  br label %JS_FreeValue.exit

44:                                               ; preds = %namelist_find.exit.thread
  %45 = call ptr @js_load_file(ptr noundef %0, ptr noundef nonnull %5, ptr noundef %1) #16
  %.not36 = icmp eq ptr %45, null
  br i1 %.not36, label %46, label %48

46:                                               ; preds = %44
  %47 = call { i64, i64 } (ptr, ptr, ...) @JS_ThrowReferenceError(ptr noundef %0, ptr noundef nonnull @.str.2, ptr noundef %1) #16
  br label %JS_FreeValue.exit

48:                                               ; preds = %44
  %49 = load i64, ptr %5, align 8
  %50 = call { i64, i64 } @JS_Eval(ptr noundef %0, ptr noundef nonnull %45, i64 noundef %49, ptr noundef %1, i32 noundef 33) #16
  %51 = extractvalue { i64, i64 } %50, 0
  %52 = extractvalue { i64, i64 } %50, 1
  call void @js_free(ptr noundef %0, ptr noundef nonnull %45) #16
  %53 = and i64 %52, 4294967295
  %.not = icmp eq i64 %53, 6
  br i1 %.not, label %JS_FreeValue.exit, label %54

54:                                               ; preds = %48
  call fastcc void @get_c_name(ptr noundef nonnull %6, ptr noundef %1)
  %55 = load i32, ptr @cname_list.1, align 8
  %56 = icmp sgt i32 %55, 0
  br i1 %56, label %.lr.ph.i44, label %namelist_find.exit50.thread

.lr.ph.i44:                                       ; preds = %54
  %57 = load ptr, ptr @cname_list.0, align 8
  %wide.trip.count.i45 = zext nneg i32 %55 to i64
  br label %59

58:                                               ; preds = %59
  %indvars.iv.next.i48 = add nuw nsw i64 %indvars.iv.i46, 1
  %exitcond.not.i49 = icmp eq i64 %indvars.iv.next.i48, %wide.trip.count.i45
  br i1 %exitcond.not.i49, label %namelist_find.exit50.thread, label %59, !llvm.loop !9

59:                                               ; preds = %58, %.lr.ph.i44
  %indvars.iv.i46 = phi i64 [ 0, %.lr.ph.i44 ], [ %indvars.iv.next.i48, %58 ]
  %60 = getelementptr %struct.namelist_entry_t, ptr %57, i64 %indvars.iv.i46
  %61 = load ptr, ptr %60, align 8
  %62 = call i32 @strcmp(ptr noundef nonnull dereferenceable(1) %61, ptr noundef nonnull dereferenceable(1) %6) #17
  %.not.i47 = icmp eq i32 %62, 0
  br i1 %.not.i47, label %namelist_find.exit50, label %58

namelist_find.exit50:                             ; preds = %59
  call void @llvm.lifetime.start.p0(i64 1024, ptr nonnull %4)
  %63 = call i64 @strlen(ptr noundef nonnull dereferenceable(1) %6) #17
  %64 = icmp ugt i64 %63, 1008
  br i1 %64, label %65, label %67

65:                                               ; preds = %namelist_find.exit50
  %66 = getelementptr inbounds i8, ptr %6, i64 1008
  store i8 0, ptr %66, align 16
  br label %67

67:                                               ; preds = %65, %namelist_find.exit50
  %68 = call i32 (ptr, i64, ptr, ...) @snprintf(ptr noundef nonnull dereferenceable(1) %4, i64 noundef 1024, ptr noundef nonnull @.str.30, ptr noundef nonnull %6, i32 noundef 1) #16
  %69 = load i32, ptr @cname_list.1, align 8
  %70 = icmp sgt i32 %69, 0
  br i1 %70, label %.lr.ph.i.i, label %find_unique_cname.exit

.lr.ph.i.i:                                       ; preds = %67, %namelist_find.exit.i
  %71 = phi i32 [ %80, %namelist_find.exit.i ], [ %69, %67 ]
  %.014.i = phi i32 [ %78, %namelist_find.exit.i ], [ 1, %67 ]
  %72 = load ptr, ptr @cname_list.0, align 8
  %wide.trip.count.i.i = zext nneg i32 %71 to i64
  br label %74

73:                                               ; preds = %74
  %indvars.iv.next.i.i = add nuw nsw i64 %indvars.iv.i.i, 1
  %exitcond.not.i.i = icmp eq i64 %indvars.iv.next.i.i, %wide.trip.count.i.i
  br i1 %exitcond.not.i.i, label %find_unique_cname.exit, label %74, !llvm.loop !9

74:                                               ; preds = %73, %.lr.ph.i.i
  %indvars.iv.i.i = phi i64 [ 0, %.lr.ph.i.i ], [ %indvars.iv.next.i.i, %73 ]
  %75 = getelementptr %struct.namelist_entry_t, ptr %72, i64 %indvars.iv.i.i
  %76 = load ptr, ptr %75, align 8
  %77 = call i32 @strcmp(ptr noundef nonnull dereferenceable(1) %76, ptr noundef nonnull dereferenceable(1) %4) #17
  %.not.i.i = icmp eq i32 %77, 0
  br i1 %.not.i.i, label %namelist_find.exit.i, label %73

namelist_find.exit.i:                             ; preds = %74
  %78 = add i32 %.014.i, 1
  %79 = call i32 (ptr, i64, ptr, ...) @snprintf(ptr noundef nonnull dereferenceable(1) %4, i64 noundef 1024, ptr noundef nonnull @.str.30, ptr noundef nonnull %6, i32 noundef %78) #16
  %80 = load i32, ptr @cname_list.1, align 8
  %81 = icmp sgt i32 %80, 0
  br i1 %81, label %.lr.ph.i.i, label %find_unique_cname.exit

find_unique_cname.exit:                           ; preds = %namelist_find.exit.i, %73, %67
  call void @pstrcpy(ptr noundef nonnull %6, i32 noundef 1024, ptr noundef nonnull %4) #16
  call void @llvm.lifetime.end.p0(i64 1024, ptr nonnull %4)
  br label %namelist_find.exit50.thread

namelist_find.exit50.thread:                      ; preds = %58, %54, %find_unique_cname.exit
  %82 = load ptr, ptr @outfile, align 8
  call fastcc void @output_object_code(ptr noundef %0, ptr noundef %82, i64 %51, i64 %52, ptr noundef nonnull %6, i32 noundef 1)
  %.sroa.02.0..sroa.02.0..cast = inttoptr i64 %51 to ptr
  %83 = trunc i64 %52 to i32
  %84 = icmp ugt i32 %83, -12
  br i1 %84, label %85, label %JS_FreeValue.exit

85:                                               ; preds = %namelist_find.exit50.thread
  %86 = load i32, ptr %.sroa.02.0..sroa.02.0..cast, align 4
  %87 = add i32 %86, -1
  store i32 %87, ptr %.sroa.02.0..sroa.02.0..cast, align 4
  %88 = icmp slt i32 %87, 1
  br i1 %88, label %89, label %JS_FreeValue.exit

89:                                               ; preds = %85
  call void @__JS_FreeValue(ptr noundef %0, i64 %51, i64 %52) #16
  br label %JS_FreeValue.exit

JS_FreeValue.exit:                                ; preds = %89, %85, %namelist_find.exit50.thread, %namelist_add.exit, %40, %48, %46
  %.0 = phi ptr [ null, %46 ], [ null, %48 ], [ %38, %namelist_add.exit ], [ %43, %40 ], [ %.sroa.02.0..sroa.02.0..cast, %namelist_find.exit50.thread ], [ %.sroa.02.0..sroa.02.0..cast, %85 ], [ %.sroa.02.0..sroa.02.0..cast, %89 ]
  ret ptr %.0
}